; Function Attrs: mustprogress nofree norecurse nosync nounwind willreturn memory(argmem: read) uwtable
define noundef i32 @_ZNK6icu_756number4impl30PropertiesAffixPatternProvider6lengthEi(ptr nocapture noundef nonnull readonly align 8 dereferenceable(267) %this, i32 noundef %flags) unnamed_addr #9 align 2 {
entry:
  %and2.i = and i32 %flags, 512
  %cmp3.not.i = icmp eq i32 %and2.i, 0
  %0 = and i32 %flags, 768
  %brmerge.not.i = icmp eq i32 %0, 768
  %and.i = and i32 %flags, 256
  %cmp.not.i = icmp eq i32 %and.i, 0
  %..i = select i1 %cmp3.not.i, i64 72, i64 200
  %spec.select.i = select i1 %cmp.not.i, i64 %..i, i64 8
  %.sink.i = select i1 %brmerge.not.i, i64 136, i64 %spec.select.i
  %posSuffix.i = getelementptr inbounds i8, ptr %this, i64 %.sink.i
  %fUnion.i.i = getelementptr inbounds i8, ptr %posSuffix.i, i64 8
  %1 = load i16, ptr %fUnion.i.i, align 8
  %cmp.i.i = icmp slt i16 %1, 0
  %2 = ashr i16 %1, 5
  %shr.i.i = sext i16 %2 to i32
  %fLength.i = getelementptr inbounds i8, ptr %posSuffix.i, i64 12
  %3 = load i32, ptr %fLength.i, align 4
  %cond.i = select i1 %cmp.i.i, i32 %3, i32 %shr.i.i
  ret i32 %cond.i
}